target datalayout = "e-m:e-p270:32:32-p271:32:32-p272:64:64-i64:64-i128:128-f80:128-n8:16:32:64-S128"
target triple = "x86_64-pc-linux-gnu"

%struct._zend_executor_globals = type { %struct._zval_struct, %struct._zval_struct, [32 x ptr], ptr, ptr, %struct._zend_array, %struct._zend_array, ptr, i32, i32, ptr, ptr, ptr, ptr, ptr, ptr, i64, ptr, ptr, i32, i32, i64, i32, i32, i32, i8, i8, %struct.zend_atomic_bool_s, %struct.zend_atomic_bool_s, ptr, i64, ptr, ptr, %struct._zend_array, %struct._zend_array, i32, i8, %struct._zval_struct, %struct._zval_struct, %struct._zend_stack, %struct._zend_stack, %struct._zend_stack, ptr, i32, i32, i64, ptr, ptr, ptr, %struct._zend_objects_store, ptr, ptr, ptr, [3 x %struct._zend_op], ptr, i8, i8, i64, i32, i32, ptr, [16 x %struct._HashTableIterator], ptr, %union._zend_function, %struct._zend_op, %struct._zend_array, i64, %struct.zend_get_gc_buffer, ptr, ptr, ptr, i64, i8, i32, ptr, ptr, i64, %struct._zend_call_stack, i64, i64, [6 x ptr] }
%struct.zend_atomic_bool_s = type { i8 }
%struct._zval_struct = type { %union._zend_value, %union.anon, %union.anon.2 }
%union._zend_value = type { i64 }
%union.anon = type { i32 }
%union.anon.2 = type { i32 }
%struct._zend_stack = type { i32, i32, i32, ptr }
%struct._zend_objects_store = type { ptr, i32, i32, i32 }
%struct._HashTableIterator = type { ptr, i32, i32 }
%union._zend_function = type { %struct._zend_op_array }
%struct._zend_op_array = type { i8, [3 x i8], i32, ptr, ptr, ptr, i32, i32, ptr, ptr, ptr, ptr, i32, i32, i32, i32, ptr, ptr, ptr, ptr, ptr, i32, i32, ptr, ptr, ptr, i32, i32, i32, i32, ptr, ptr, [6 x ptr] }
%struct._zend_op = type { ptr, %union._znode_op, %union._znode_op, %union._znode_op, i32, i32, i8, i8, i8, i8 }
%union._znode_op = type { i32 }
%struct._zend_array = type { %struct._zend_refcounted_h, %union.anon.4, i32, %union.anon.6, i32, i32, i32, i32, i64, ptr }
%struct._zend_refcounted_h = type { i32, %union.anon.3 }
%union.anon.3 = type { i32 }
%union.anon.4 = type { i32 }
%union.anon.6 = type { ptr }
%struct.zend_get_gc_buffer = type { ptr, ptr, ptr }
%struct._zend_call_stack = type { ptr, i64 }
%struct._zend_execute_data = type { ptr, ptr, ptr, ptr, %struct._zval_struct, ptr, ptr, ptr, ptr }

@.str.6 = private unnamed_addr constant [7 x i8] c"stream\00", align 1
@executor_globals = external global %struct._zend_executor_globals, align 8
@.str.40 = private unnamed_addr constant [67 x i8] c"must be one of STREAM_SHUT_RD, STREAM_SHUT_WR, or STREAM_SHUT_RDWR\00", align 1

; Function Attrs: nounwind uwtable
define hidden void @zif_stream_socket_shutdown(ptr noundef %0, ptr noundef %1) #0 {
  %3 = alloca ptr, align 8
  %4 = alloca ptr, align 8
  %5 = alloca i1, align 1
  %6 = alloca ptr, align 8
  %7 = alloca ptr, align 8
  %8 = alloca ptr, align 8
  %9 = alloca i8, align 1
  %10 = alloca i32, align 4
  %11 = alloca i8, align 1
  %12 = alloca ptr, align 8
  %13 = alloca ptr, align 8
  %14 = alloca i1, align 1
  %15 = alloca ptr, align 8
  %16 = alloca ptr, align 8
  %17 = alloca i8, align 1
  %18 = alloca ptr, align 8
  %19 = alloca ptr, align 8
  %20 = alloca ptr, align 8
  %21 = alloca i8, align 1
  %22 = alloca i32, align 4
  %23 = alloca ptr, align 8
  %24 = alloca ptr, align 8
  %25 = alloca i64, align 8
  %26 = alloca ptr, align 8
  %27 = alloca ptr, align 8
  %28 = alloca i32, align 4
  %29 = alloca i32, align 4
  %30 = alloca i32, align 4
  %31 = alloca i32, align 4
  %32 = alloca i32, align 4
  %33 = alloca ptr, align 8
  %34 = alloca ptr, align 8
  %35 = alloca i32, align 4
  %36 = alloca ptr, align 8
  %37 = alloca i8, align 1
  %38 = alloca i8, align 1
  %39 = alloca i32, align 4
  store ptr %0, ptr %23, align 8
  store ptr %1, ptr %24, align 8
  br label %40

40:                                               ; preds = %2
  store i32 0, ptr %28, align 4
  store i32 2, ptr %29, align 4
  store i32 2, ptr %30, align 4
  %41 = load ptr, ptr %23, align 8
  %42 = getelementptr inbounds %struct._zend_execute_data, ptr %41, i32 0, i32 4
  %43 = getelementptr inbounds %struct._zval_struct, ptr %42, i32 0, i32 2
  %44 = load i32, ptr %43, align 4
  store i32 %44, ptr %31, align 4
  store i32 0, ptr %32, align 4
  store ptr null, ptr %34, align 8
  store i32 0, ptr %35, align 4
  store ptr null, ptr %36, align 8
  store i8 0, ptr %37, align 1
  store i8 0, ptr %38, align 1
  store i32 0, ptr %39, align 4
  br label %45

45:                                               ; preds = %40
  %46 = load i32, ptr %31, align 4
  %47 = load i32, ptr %29, align 4
  %48 = icmp ult i32 %46, %47
  %49 = xor i1 %48, true
  %50 = xor i1 %49, true
  %51 = zext i1 %50 to i32
  %52 = sext i32 %51 to i64
  %53 = icmp ne i64 %52, 0
  br i1 %53, label %63, label %54

54:                                               ; preds = %45
  %55 = load i32, ptr %31, align 4
  %56 = load i32, ptr %30, align 4
  %57 = icmp ugt i32 %55, %56
  %58 = xor i1 %57, true
  %59 = xor i1 %58, true
  %60 = zext i1 %59 to i32
  %61 = sext i32 %60 to i64
  %62 = icmp ne i64 %61, 0
  br i1 %62, label %63, label %66

63:                                               ; preds = %54, %45
  %64 = load i32, ptr %29, align 4
  %65 = load i32, ptr %30, align 4
  call void @zend_wrong_parameters_count_error(i32 noundef %64, i32 noundef %65)
  store i32 1, ptr %39, align 4
  br label %250

66:                                               ; preds = %54
  %67 = load ptr, ptr %23, align 8
  %68 = getelementptr inbounds %struct._zval_struct, ptr %67, i64 4
  store ptr %68, ptr %33, align 8
  %69 = load i32, ptr %32, align 4
  %70 = add i32 %69, 1
  store i32 %70, ptr %32, align 4
  %71 = load i32, ptr %32, align 4
  %72 = load i32, ptr %29, align 4
  %73 = icmp ule i32 %71, %72
  br i1 %73, label %79, label %74

74:                                               ; preds = %66
  %75 = load i8, ptr %38, align 1
  %76 = trunc i8 %75 to i1
  %77 = zext i1 %76 to i32
  %78 = icmp eq i32 %77, 1
  br label %79

79:                                               ; preds = %74, %66
  %80 = phi i1 [ true, %66 ], [ %78, %74 ]
  call void @llvm.assume(i1 %80)
  %81 = load i32, ptr %32, align 4
  %82 = load i32, ptr %29, align 4
  %83 = icmp ugt i32 %81, %82
  br i1 %83, label %89, label %84

84:                                               ; preds = %79
  %85 = load i8, ptr %38, align 1
  %86 = trunc i8 %85 to i1
  %87 = zext i1 %86 to i32
  %88 = icmp eq i32 %87, 0
  br label %89

89:                                               ; preds = %84, %79
  %90 = phi i1 [ true, %79 ], [ %88, %84 ]
  call void @llvm.assume(i1 %90)
  %91 = load i8, ptr %38, align 1
  %92 = trunc i8 %91 to i1
  br i1 %92, label %93, label %104

93:                                               ; preds = %89
  %94 = load i32, ptr %32, align 4
  %95 = load i32, ptr %31, align 4
  %96 = icmp ugt i32 %94, %95
  %97 = xor i1 %96, true
  %98 = xor i1 %97, true
  %99 = zext i1 %98 to i32
  %100 = sext i32 %99 to i64
  %101 = icmp ne i64 %100, 0
  br i1 %101, label %102, label %103

102:                                              ; preds = %93
  br label %250

103:                                              ; preds = %93
  br label %104

104:                                              ; preds = %103, %89
  %105 = load ptr, ptr %33, align 8
  %106 = getelementptr inbounds %struct._zval_struct, ptr %105, i32 1
  store ptr %106, ptr %33, align 8
  %107 = load ptr, ptr %33, align 8
  store ptr %107, ptr %34, align 8
  %108 = load ptr, ptr %34, align 8
  store ptr %108, ptr %15, align 8
  store ptr %26, ptr %16, align 8
  store i8 0, ptr %17, align 1
  %109 = load ptr, ptr %15, align 8
  store ptr %109, ptr %12, align 8
  %110 = load ptr, ptr %12, align 8
  %111 = getelementptr inbounds %struct._zval_struct, ptr %110, i32 0, i32 1
  %112 = load i8, ptr %111, align 8
  %113 = zext i8 %112 to i32
  %114 = icmp eq i32 %113, 9
  br i1 %114, label %115, label %118

115:                                              ; preds = %104
  %116 = load ptr, ptr %15, align 8
  %117 = load ptr, ptr %16, align 8
  store ptr %116, ptr %117, align 8
  br label %131

118:                                              ; preds = %104
  %119 = load i8, ptr %17, align 1
  %120 = trunc i8 %119 to i1
  br i1 %120, label %121, label %130

121:                                              ; preds = %118
  %122 = load ptr, ptr %15, align 8
  store ptr %122, ptr %13, align 8
  %123 = load ptr, ptr %13, align 8
  %124 = getelementptr inbounds %struct._zval_struct, ptr %123, i32 0, i32 1
  %125 = load i8, ptr %124, align 8
  %126 = zext i8 %125 to i32
  %127 = icmp eq i32 %126, 1
  br i1 %127, label %128, label %130

128:                                              ; preds = %121
  %129 = load ptr, ptr %16, align 8
  store ptr null, ptr %129, align 8
  br label %131

130:                                              ; preds = %121, %118
  store i1 false, ptr %14, align 1
  br label %132

131:                                              ; preds = %128, %115
  store i1 true, ptr %14, align 1
  br label %132

132:                                              ; preds = %131, %130
  %133 = load i1, ptr %14, align 1
  %134 = xor i1 %133, true
  %135 = xor i1 %134, true
  %136 = xor i1 %135, true
  %137 = zext i1 %136 to i32
  %138 = sext i32 %137 to i64
  %139 = icmp ne i64 %138, 0
  br i1 %139, label %140, label %141

140:                                              ; preds = %132
  store i32 14, ptr %35, align 4
  store i32 9, ptr %39, align 4
  br label %250

141:                                              ; preds = %132
  %142 = load i32, ptr %32, align 4
  %143 = add i32 %142, 1
  store i32 %143, ptr %32, align 4
  %144 = load i32, ptr %32, align 4
  %145 = load i32, ptr %29, align 4
  %146 = icmp ule i32 %144, %145
  br i1 %146, label %152, label %147

147:                                              ; preds = %141
  %148 = load i8, ptr %38, align 1
  %149 = trunc i8 %148 to i1
  %150 = zext i1 %149 to i32
  %151 = icmp eq i32 %150, 1
  br label %152

152:                                              ; preds = %147, %141
  %153 = phi i1 [ true, %141 ], [ %151, %147 ]
  call void @llvm.assume(i1 %153)
  %154 = load i32, ptr %32, align 4
  %155 = load i32, ptr %29, align 4
  %156 = icmp ugt i32 %154, %155
  br i1 %156, label %162, label %157

157:                                              ; preds = %152
  %158 = load i8, ptr %38, align 1
  %159 = trunc i8 %158 to i1
  %160 = zext i1 %159 to i32
  %161 = icmp eq i32 %160, 0
  br label %162

162:                                              ; preds = %157, %152
  %163 = phi i1 [ true, %152 ], [ %161, %157 ]
  call void @llvm.assume(i1 %163)
  %164 = load i8, ptr %38, align 1
  %165 = trunc i8 %164 to i1
  br i1 %165, label %166, label %177

166:                                              ; preds = %162
  %167 = load i32, ptr %32, align 4
  %168 = load i32, ptr %31, align 4
  %169 = icmp ugt i32 %167, %168
  %170 = xor i1 %169, true
  %171 = xor i1 %170, true
  %172 = zext i1 %171 to i32
  %173 = sext i32 %172 to i64
  %174 = icmp ne i64 %173, 0
  br i1 %174, label %175, label %176

175:                                              ; preds = %166
  br label %250

176:                                              ; preds = %166
  br label %177

177:                                              ; preds = %176, %162
  %178 = load ptr, ptr %33, align 8
  %179 = getelementptr inbounds %struct._zval_struct, ptr %178, i32 1
  store ptr %179, ptr %33, align 8
  %180 = load ptr, ptr %33, align 8
  store ptr %180, ptr %34, align 8
  %181 = load ptr, ptr %34, align 8
  %182 = load i32, ptr %32, align 4
  store ptr %181, ptr %18, align 8
  store ptr %25, ptr %19, align 8
  store ptr %37, ptr %20, align 8
  store i8 0, ptr %21, align 1
  store i32 %182, ptr %22, align 4
  %183 = load ptr, ptr %18, align 8
  %184 = load ptr, ptr %19, align 8
  %185 = load ptr, ptr %20, align 8
  %186 = load i8, ptr %21, align 1
  %187 = trunc i8 %186 to i1
  %188 = load i32, ptr %22, align 4
  store ptr %183, ptr %6, align 8
  store ptr %184, ptr %7, align 8
  store ptr %185, ptr %8, align 8
  %189 = zext i1 %187 to i8
  store i8 %189, ptr %9, align 1
  store i32 %188, ptr %10, align 4
  store i8 0, ptr %11, align 1
  %190 = load i8, ptr %9, align 1
  %191 = trunc i8 %190 to i1
  br i1 %191, label %192, label %194

192:                                              ; preds = %177
  %193 = load ptr, ptr %8, align 8
  store i8 0, ptr %193, align 1
  br label %194

194:                                              ; preds = %192, %177
  %195 = load ptr, ptr %6, align 8
  store ptr %195, ptr %3, align 8
  %196 = load ptr, ptr %3, align 8
  %197 = getelementptr inbounds %struct._zval_struct, ptr %196, i32 0, i32 1
  %198 = load i8, ptr %197, align 8
  %199 = zext i8 %198 to i32
  %200 = icmp eq i32 %199, 4
  br i1 %200, label %201, label %205

201:                                              ; preds = %194
  %202 = load ptr, ptr %6, align 8
  %203 = load i64, ptr %202, align 8
  %204 = load ptr, ptr %7, align 8
  store i64 %203, ptr %204, align 8
  br label %231

205:                                              ; preds = %194
  %206 = load i8, ptr %9, align 1
  %207 = trunc i8 %206 to i1
  br i1 %207, label %208, label %218

208:                                              ; preds = %205
  %209 = load ptr, ptr %6, align 8
  store ptr %209, ptr %4, align 8
  %210 = load ptr, ptr %4, align 8
  %211 = getelementptr inbounds %struct._zval_struct, ptr %210, i32 0, i32 1
  %212 = load i8, ptr %211, align 8
  %213 = zext i8 %212 to i32
  %214 = icmp eq i32 %213, 1
  br i1 %214, label %215, label %218

215:                                              ; preds = %208
  %216 = load ptr, ptr %8, align 8
  store i8 1, ptr %216, align 1
  %217 = load ptr, ptr %7, align 8
  store i64 0, ptr %217, align 8
  br label %231

218:                                              ; preds = %208, %205
  %219 = load i8, ptr %11, align 1
  %220 = trunc i8 %219 to i1
  br i1 %220, label %221, label %226

221:                                              ; preds = %218
  %222 = load ptr, ptr %6, align 8
  %223 = load ptr, ptr %7, align 8
  %224 = load i32, ptr %10, align 4
  %225 = call zeroext i1 @zend_flf_parse_arg_long_slow(ptr noundef %222, ptr noundef %223, i32 noundef %224) #9
  store i1 %225, ptr %5, align 1
  br label %232

226:                                              ; preds = %218
  %227 = load ptr, ptr %6, align 8
  %228 = load ptr, ptr %7, align 8
  %229 = load i32, ptr %10, align 4
  %230 = call zeroext i1 @zend_parse_arg_long_slow(ptr noundef %227, ptr noundef %228, i32 noundef %229) #9
  store i1 %230, ptr %5, align 1
  br label %232

231:                                              ; preds = %215, %201
  store i1 true, ptr %5, align 1
  br label %232

232:                                              ; preds = %231, %226, %221
  %233 = load i1, ptr %5, align 1
  %234 = xor i1 %233, true
  %235 = xor i1 %234, true
  %236 = xor i1 %235, true
  %237 = zext i1 %236 to i32
  %238 = sext i32 %237 to i64
  %239 = icmp ne i64 %238, 0
  br i1 %239, label %240, label %241

240:                                              ; preds = %232
  store i32 0, ptr %35, align 4
  store i32 9, ptr %39, align 4
  br label %250

241:                                              ; preds = %232
  %242 = load i32, ptr %32, align 4
  %243 = load i32, ptr %30, align 4
  %244 = icmp eq i32 %242, %243
  br i1 %244, label %248, label %245

245:                                              ; preds = %241
  %246 = load i32, ptr %30, align 4
  %247 = icmp eq i32 %246, -1
  br label %248

248:                                              ; preds = %245, %241
  %249 = phi i1 [ true, %241 ], [ %247, %245 ]
  call void @llvm.assume(i1 %249)
  br label %250

250:                                              ; preds = %248, %240, %175, %140, %102, %63
  %251 = load i32, ptr %39, align 4
  %252 = icmp ne i32 %251, 0
  %253 = xor i1 %252, true
  %254 = xor i1 %253, true
  %255 = zext i1 %254 to i32
  %256 = sext i32 %255 to i64
  %257 = icmp ne i64 %256, 0
  br i1 %257, label %258, label %264

258:                                              ; preds = %250
  %259 = load i32, ptr %39, align 4
  %260 = load i32, ptr %32, align 4
  %261 = load ptr, ptr %36, align 8
  %262 = load i32, ptr %35, align 4
  %263 = load ptr, ptr %34, align 8
  call void @zend_wrong_parameter_error(i32 noundef %259, i32 noundef %260, ptr noundef %261, i32 noundef %262, ptr noundef %263)
  br label %300

264:                                              ; preds = %250
  br label %265

265:                                              ; preds = %264
  %266 = load i64, ptr %25, align 8
  %267 = icmp ne i64 %266, 0
  br i1 %267, label %268, label %279

268:                                              ; preds = %265
  %269 = load i64, ptr %25, align 8
  %270 = icmp ne i64 %269, 1
  br i1 %270, label %271, label %279

271:                                              ; preds = %268
  %272 = load i64, ptr %25, align 8
  %273 = icmp ne i64 %272, 2
  br i1 %273, label %274, label %279

274:                                              ; preds = %271
  call void (i32, ptr, ...) @zend_argument_value_error(i32 noundef 2, ptr noundef @.str.40)
  br label %275

275:                                              ; preds = %274
  %276 = load ptr, ptr getelementptr inbounds (%struct._zend_executor_globals, ptr @executor_globals, i32 0, i32 50), align 8
  %277 = icmp ne ptr %276, null
  call void @llvm.assume(i1 %277)
  br label %300

278:                                              ; No predecessors!
  br label %279

279:                                              ; preds = %278, %271, %268, %265
  br label %280

280:                                              ; preds = %279
  %281 = load ptr, ptr %26, align 8
  %282 = call i32 @php_file_le_stream()
  %283 = call i32 @php_file_le_pstream()
  %284 = call ptr @zend_fetch_resource2_ex(ptr noundef %281, ptr noundef @.str.6, i32 noundef %282, i32 noundef %283)
  store ptr %284, ptr %27, align 8
  %285 = icmp eq ptr %284, null
  br i1 %285, label %286, label %287

286:                                              ; preds = %280
  br label %300

287:                                              ; preds = %280
  br label %288

288:                                              ; preds = %287
  br label %289

289:                                              ; preds = %288
  br label %290

290:                                              ; preds = %289
  %291 = load ptr, ptr %27, align 8
  %292 = load i64, ptr %25, align 8
  %293 = trunc i64 %292 to i32
  %294 = call i32 @php_stream_xport_shutdown(ptr noundef %291, i32 noundef %293)
  %295 = icmp eq i32 %294, 0
  %296 = select i1 %295, i32 3, i32 2
  %297 = load ptr, ptr %24, align 8
  %298 = getelementptr inbounds %struct._zval_struct, ptr %297, i32 0, i32 1
  store i32 %296, ptr %298, align 8
  br label %299

299:                                              ; preds = %290
  br label %300

300:                                              ; preds = %299, %286, %275, %258
  ret void
}