; Function Attrs: nounwind uwtable
define hidden void @zif_stream_socket_shutdown(ptr noundef %0, ptr nocapture noundef writeonly %1) local_unnamed_addr #0 {
  %3 = alloca i64, align 8
  %4 = getelementptr inbounds i8, ptr %0, i64 44
  %5 = load i32, ptr %4, align 4
  %.not = icmp eq i32 %5, 2
  br i1 %.not, label %7, label %6

6:                                                ; preds = %2
  tail call void @zend_wrong_parameters_count_error(i32 noundef 2, i32 noundef 2) #10
  br label %.thread102

7:                                                ; preds = %2
  %8 = getelementptr inbounds i8, ptr %0, i64 80
  %9 = getelementptr inbounds i8, ptr %0, i64 88
  %10 = load i8, ptr %9, align 8
  %.not91 = icmp eq i8 %10, 9
  br i1 %.not91, label %11, label %.thread102

11:                                               ; preds = %7
  %12 = getelementptr inbounds i8, ptr %0, i64 96
  %13 = getelementptr inbounds i8, ptr %0, i64 104
  %14 = load i8, ptr %13, align 8
  %15 = icmp eq i8 %14, 4
  br i1 %15, label %.thread98, label %17

.thread98:                                        ; preds = %11
  %16 = load i64, ptr %12, align 8
  store i64 %16, ptr %3, align 8
  br label %.thread122

17:                                               ; preds = %11
  %18 = call zeroext i1 @zend_parse_arg_long_slow(ptr noundef nonnull %12, ptr noundef nonnull %3, i32 noundef 2) #10
  %.fr = freeze i1 %18
  br i1 %.fr, label %.thread122thread-pre-split, label %.thread102

.thread102:                                       ; preds = %7, %6, %17
  %.0112 = phi i32 [ 9, %17 ], [ 9, %7 ], [ 1, %6 ]
  %.083111 = phi i32 [ 0, %17 ], [ 14, %7 ], [ 0, %6 ]
  %.084110 = phi ptr [ %12, %17 ], [ %8, %7 ], [ null, %6 ]
  %.085109 = phi i32 [ 2, %17 ], [ 1, %7 ], [ 0, %6 ]
  call void @zend_wrong_parameter_error(i32 noundef %.0112, i32 noundef %.085109, ptr noundef null, i32 noundef %.083111, ptr noundef %.084110) #10
  br label %35

.thread122thread-pre-split:                       ; preds = %17
  %.pr = load i64, ptr %3, align 8
  br label %.thread122

.thread122:                                       ; preds = %.thread122thread-pre-split, %.thread98
  %19 = phi i64 [ %.pr, %.thread122thread-pre-split ], [ %16, %.thread98 ]
  %or.cond3 = icmp ugt i64 %19, 2
  br i1 %or.cond3, label %20, label %23

20:                                               ; preds = %.thread122
  call void (i32, ptr, ...) @zend_argument_value_error(i32 noundef 2, ptr noundef nonnull @.str.40) #10
  %21 = load ptr, ptr getelementptr inbounds (%struct._zend_executor_globals, ptr @executor_globals, i64 0, i32 50), align 8
  %22 = icmp ne ptr %21, null
  call void @llvm.assume(i1 %22)
  br label %35

23:                                               ; preds = %.thread122
  %24 = call i32 @php_file_le_stream() #10
  %25 = call i32 @php_file_le_pstream() #10
  %26 = call ptr @zend_fetch_resource2_ex(ptr noundef nonnull %8, ptr noundef nonnull @.str.6, i32 noundef %24, i32 noundef %25) #10
  %27 = icmp eq ptr %26, null
  br i1 %27, label %35, label %28

28:                                               ; preds = %23
  %29 = load i64, ptr %3, align 8
  %30 = trunc i64 %29 to i32
  %31 = call i32 @php_stream_xport_shutdown(ptr noundef nonnull %26, i32 noundef %30) #10
  %32 = icmp eq i32 %31, 0
  %33 = select i1 %32, i32 3, i32 2
  %34 = getelementptr inbounds i8, ptr %1, i64 8
  store i32 %33, ptr %34, align 8
  br label %35

35:                                               ; preds = %23, %28, %20, %.thread102
  ret void
}